target datalayout = "e-m:e-p270:32:32-p271:32:32-p272:64:64-i64:64-i128:128-f80:128-n8:16:32:64-S128"
target triple = "x86_64-pc-linux-gnu"

%"class.LIEF::DEX::Method" = type { %"class.LIEF::Object", %"class.std::__cxx11::basic_string", ptr, ptr, i32, i32, i8, i64, %"class.std::vector", %"class.LIEF::DEX::CodeInfo", %"class.std::unordered_map" }
%"class.LIEF::Object" = type { ptr }
%"class.std::__cxx11::basic_string" = type { %"struct.std::__cxx11::basic_string<char>::_Alloc_hider", i64, %union.anon }
%"struct.std::__cxx11::basic_string<char>::_Alloc_hider" = type { ptr }
%union.anon = type { i64, [8 x i8] }
%"class.std::vector" = type { %"struct.std::_Vector_base" }
%"struct.std::_Vector_base" = type { %"struct.std::_Vector_base<unsigned char, std::allocator<unsigned char>>::_Vector_impl" }
%"struct.std::_Vector_base<unsigned char, std::allocator<unsigned char>>::_Vector_impl" = type { %"struct.std::_Vector_base<unsigned char, std::allocator<unsigned char>>::_Vector_impl_data" }
%"struct.std::_Vector_base<unsigned char, std::allocator<unsigned char>>::_Vector_impl_data" = type { ptr, ptr, ptr }
%"class.LIEF::DEX::CodeInfo" = type <{ %"class.LIEF::Object", i16, i16, i16, [2 x i8] }>
%"class.std::unordered_map" = type { %"class.std::_Hashtable" }
%"class.std::_Hashtable" = type { ptr, i64, %"struct.std::__detail::_Hash_node_base", i64, %"struct.std::__detail::_Prime_rehash_policy", ptr }
%"struct.std::__detail::_Hash_node_base" = type { ptr }
%"struct.std::__detail::_Prime_rehash_policy" = type { float, i64 }

; Function Attrs: mustprogress uwtable
define linkonce_odr noundef nonnull align 8 dereferenceable(56) ptr @_ZNSt10_HashtableIjSt4pairIKjjESaIS2_ENSt8__detail10_Select1stESt8equal_toIjESt4hashIjENS4_18_Mod_range_hashingENS4_20_Default_ranged_hashENS4_20_Prime_rehash_policyENS4_17_Hashtable_traitsILb0ELb0ELb1EEEEaSERKSF_(ptr noundef nonnull align 8 dereferenceable(56) %0, ptr noundef nonnull align 8 dereferenceable(56) %1) #0 comdat align 2 {
  %3 = alloca ptr, align 8
  %4 = alloca ptr, align 8
  %5 = alloca ptr, align 8
  store ptr %0, ptr %4, align 8
  store ptr %1, ptr %5, align 8
  %6 = load ptr, ptr %4, align 8
  %7 = load ptr, ptr %5, align 8
  %8 = icmp eq ptr %7, %6
  br i1 %8, label %9, label %10

9:                                                ; preds = %2
  store ptr %6, ptr %3, align 8
  br label %12

10:                                               ; preds = %2
  %11 = load ptr, ptr %5, align 8
  call void @_ZNSt10_HashtableIjSt4pairIKjjESaIS2_ENSt8__detail10_Select1stESt8equal_toIjESt4hashIjENS4_18_Mod_range_hashingENS4_20_Default_ranged_hashENS4_20_Prime_rehash_policyENS4_17_Hashtable_traitsILb0ELb0ELb1EEEE18_M_assign_elementsIRKSF_EEvOT_(ptr noundef nonnull align 8 dereferenceable(56) %6, ptr noundef nonnull align 8 dereferenceable(56) %11)
  store ptr %6, ptr %3, align 8
  br label %12

12:                                               ; preds = %10, %9
  %13 = load ptr, ptr %3, align 8
  ret ptr %13
}

; Function Attrs: mustprogress uwtable
define linkonce_odr hidden noundef nonnull align 8 dereferenceable(56) ptr @_ZNSt13unordered_mapIjjSt4hashIjESt8equal_toIjESaISt4pairIKjjEEEaSERKS8_(ptr noundef nonnull align 8 dereferenceable(56) %0, ptr noundef nonnull align 8 dereferenceable(56) %1) #0 comdat align 2 {
  %3 = alloca ptr, align 8
  %4 = alloca ptr, align 8
  store ptr %0, ptr %3, align 8
  store ptr %1, ptr %4, align 8
  %5 = load ptr, ptr %3, align 8
  %6 = getelementptr inbounds %"class.std::unordered_map", ptr %5, i32 0, i32 0
  %7 = load ptr, ptr %4, align 8
  %8 = getelementptr inbounds %"class.std::unordered_map", ptr %7, i32 0, i32 0
  %9 = call noundef nonnull align 8 dereferenceable(56) ptr @_ZNSt10_HashtableIjSt4pairIKjjESaIS2_ENSt8__detail10_Select1stESt8equal_toIjESt4hashIjENS4_18_Mod_range_hashingENS4_20_Default_ranged_hashENS4_20_Prime_rehash_policyENS4_17_Hashtable_traitsILb0ELb0ELb1EEEEaSERKSF_(ptr noundef nonnull align 8 dereferenceable(56) %6, ptr noundef nonnull align 8 dereferenceable(56) %8)
  ret ptr %5
}

; Function Attrs: mustprogress uwtable
define noundef nonnull align 8 dereferenceable(176) ptr @_ZN4LIEF3DEX6MethodaSERKS1_(ptr noundef nonnull align 8 dereferenceable(176) %0, ptr noundef nonnull align 8 dereferenceable(176) %1) #0 align 2 {
  %3 = alloca ptr, align 8
  %4 = alloca ptr, align 8
  store ptr %0, ptr %3, align 8
  store ptr %1, ptr %4, align 8
  %5 = load ptr, ptr %3, align 8
  %6 = load ptr, ptr %4, align 8
  %7 = call noundef nonnull align 8 dereferenceable(8) ptr @_ZN4LIEF6ObjectaSERKS0_(ptr noundef nonnull align 8 dereferenceable(8) %5, ptr noundef nonnull align 8 dereferenceable(8) %6)
  %8 = getelementptr inbounds %"class.LIEF::DEX::Method", ptr %5, i32 0, i32 1
  %9 = load ptr, ptr %4, align 8
  %10 = getelementptr inbounds %"class.LIEF::DEX::Method", ptr %9, i32 0, i32 1
  %11 = call noundef nonnull align 8 dereferenceable(32) ptr @_ZNSt7__cxx1112basic_stringIcSt11char_traitsIcESaIcEEaSERKS4_(ptr noundef nonnull align 8 dereferenceable(32) %8, ptr noundef nonnull align 8 dereferenceable(32) %10)
  %12 = getelementptr inbounds %"class.LIEF::DEX::Method", ptr %5, i32 0, i32 2
  %13 = load ptr, ptr %4, align 8
  %14 = getelementptr inbounds %"class.LIEF::DEX::Method", ptr %13, i32 0, i32 2
  call void @llvm.memcpy.p0.p0.i64(ptr align 8 %12, ptr align 8 %14, i64 40, i1 false)
  %15 = getelementptr inbounds %"class.LIEF::DEX::Method", ptr %5, i32 0, i32 8
  %16 = load ptr, ptr %4, align 8
  %17 = getelementptr inbounds %"class.LIEF::DEX::Method", ptr %16, i32 0, i32 8
  %18 = call noundef nonnull align 8 dereferenceable(24) ptr @_ZNSt6vectorIhSaIhEEaSERKS1_(ptr noundef nonnull align 8 dereferenceable(24) %15, ptr noundef nonnull align 8 dereferenceable(24) %17)
  %19 = getelementptr inbounds %"class.LIEF::DEX::Method", ptr %5, i32 0, i32 9
  %20 = load ptr, ptr %4, align 8
  %21 = getelementptr inbounds %"class.LIEF::DEX::Method", ptr %20, i32 0, i32 9
  %22 = call noundef nonnull align 8 dereferenceable(14) ptr @_ZN4LIEF3DEX8CodeInfoaSERKS1_(ptr noundef nonnull align 8 dereferenceable(14) %19, ptr noundef nonnull align 8 dereferenceable(14) %21)
  %23 = getelementptr inbounds %"class.LIEF::DEX::Method", ptr %5, i32 0, i32 10
  %24 = load ptr, ptr %4, align 8
  %25 = getelementptr inbounds %"class.LIEF::DEX::Method", ptr %24, i32 0, i32 10
  %26 = call noundef nonnull align 8 dereferenceable(56) ptr @_ZNSt13unordered_mapIjjSt4hashIjESt8equal_toIjESaISt4pairIKjjEEEaSERKS8_(ptr noundef nonnull align 8 dereferenceable(56) %23, ptr noundef nonnull align 8 dereferenceable(56) %25)
  ret ptr %5
}