; Function Attrs: mustprogress uwtable
define noundef nonnull align 8 dereferenceable(176) ptr @_ZN4LIEF3DEX6MethodaSERKS1_(ptr noundef nonnull returned align 8 dereferenceable(176) %0, ptr noundef nonnull align 8 dereferenceable(176) %1) local_unnamed_addr #0 align 2 {
  %3 = tail call noundef nonnull align 8 dereferenceable(8) ptr @_ZN4LIEF6ObjectaSERKS0_(ptr noundef nonnull align 8 dereferenceable(8) %0, ptr noundef nonnull align 8 dereferenceable(8) %1)
  %4 = getelementptr inbounds i8, ptr %0, i64 8
  %5 = getelementptr inbounds i8, ptr %1, i64 8
  %6 = tail call noundef nonnull align 8 dereferenceable(32) ptr @_ZNSt7__cxx1112basic_stringIcSt11char_traitsIcESaIcEEaSERKS4_(ptr noundef nonnull align 8 dereferenceable(32) %4, ptr noundef nonnull align 8 dereferenceable(32) %5)
  %7 = getelementptr inbounds i8, ptr %0, i64 40
  %8 = getelementptr inbounds i8, ptr %1, i64 40
  tail call void @llvm.memcpy.p0.p0.i64(ptr noundef nonnull align 8 dereferenceable(40) %7, ptr noundef nonnull align 8 dereferenceable(40) %8, i64 40, i1 false)
  %9 = getelementptr inbounds i8, ptr %0, i64 80
  %10 = getelementptr inbounds i8, ptr %1, i64 80
  %11 = tail call noundef nonnull align 8 dereferenceable(24) ptr @_ZNSt6vectorIhSaIhEEaSERKS1_(ptr noundef nonnull align 8 dereferenceable(24) %9, ptr noundef nonnull align 8 dereferenceable(24) %10)
  %12 = getelementptr inbounds i8, ptr %0, i64 104
  %13 = getelementptr inbounds i8, ptr %1, i64 104
  %14 = tail call noundef nonnull align 8 dereferenceable(14) ptr @_ZN4LIEF3DEX8CodeInfoaSERKS1_(ptr noundef nonnull align 8 dereferenceable(14) %12, ptr noundef nonnull align 8 dereferenceable(14) %13)
  %15 = icmp eq ptr %1, %0
  br i1 %15, label %_ZNSt13unordered_mapIjjSt4hashIjESt8equal_toIjESaISt4pairIKjjEEEaSERKS8_.exit, label %16

16:                                               ; preds = %2
  %17 = getelementptr inbounds i8, ptr %0, i64 120
  %18 = getelementptr inbounds i8, ptr %1, i64 120
  tail call void @_ZNSt10_HashtableIjSt4pairIKjjESaIS2_ENSt8__detail10_Select1stESt8equal_toIjESt4hashIjENS4_18_Mod_range_hashingENS4_20_Default_ranged_hashENS4_20_Prime_rehash_policyENS4_17_Hashtable_traitsILb0ELb0ELb1EEEE18_M_assign_elementsIRKSF_EEvOT_(ptr noundef nonnull align 8 dereferenceable(56) %17, ptr noundef nonnull align 8 dereferenceable(56) %18)
  br label %_ZNSt13unordered_mapIjjSt4hashIjESt8equal_toIjESaISt4pairIKjjEEEaSERKS8_.exit

_ZNSt13unordered_mapIjjSt4hashIjESt8equal_toIjESaISt4pairIKjjEEEaSERKS8_.exit: ; preds = %2, %16
  ret ptr %0
}